target datalayout = "e-m:e-p270:32:32-p271:32:32-p272:64:64-i64:64-i128:128-f80:128-n8:16:32:64-S128"
target triple = "x86_64-pc-linux-gnu"

%struct.xcgroup_ns_t = type { ptr, ptr, ptr, ptr }

; Function Attrs: nounwind uwtable
define dso_local void @common_cgroup_ns_destroy(ptr noundef %0) #0 {
  %2 = alloca ptr, align 8
  store ptr %0, ptr %2, align 8
  %3 = load ptr, ptr %2, align 8
  %4 = getelementptr inbounds nuw %struct.xcgroup_ns_t, ptr %3, i32 0, i32 1
  call void @slurm_xfree(ptr noundef %4)
  %5 = load ptr, ptr %2, align 8
  %6 = getelementptr inbounds nuw %struct.xcgroup_ns_t, ptr %5, i32 0, i32 2
  call void @slurm_xfree(ptr noundef %6)
  %7 = load ptr, ptr %2, align 8
  %8 = getelementptr inbounds nuw %struct.xcgroup_ns_t, ptr %7, i32 0, i32 3
  call void @slurm_xfree(ptr noundef %8)
  ret void
}