; Function Attrs: nounwind uwtable
define dso_local void @common_cgroup_ns_destroy(ptr noundef %0) local_unnamed_addr #0 {
  %2 = getelementptr inbounds nuw i8, ptr %0, i64 8
  tail call void @slurm_xfree(ptr noundef nonnull %2) #8
  %3 = getelementptr inbounds nuw i8, ptr %0, i64 16
  tail call void @slurm_xfree(ptr noundef nonnull %3) #8
  %4 = getelementptr inbounds nuw i8, ptr %0, i64 24
  tail call void @slurm_xfree(ptr noundef nonnull %4) #8
  ret void
}